target datalayout = "e-m:e-p270:32:32-p271:32:32-p272:64:64-i64:64-i128:128-f80:128-n8:16:32:64-S128"
target triple = "x86_64-pc-linux-gnu"

%struct.hwloc_utils_parsing_flag = type { i64, ptr }

@stderr = external global ptr, align 8
@.str.89 = private unnamed_addr constant [39 x i8] c"Supported %s flags are substrings of:\0A\00", align 1
@.str.90 = private unnamed_addr constant [3 x i8] c"  \00", align 1
@.str.91 = private unnamed_addr constant [3 x i8] c"%s\00", align 1
@.str.92 = private unnamed_addr constant [2 x i8] c"\0A\00", align 1

; Function Attrs: inlinehint nounwind uwtable
define internal void @hwloc_utils_parsing_flag_error(ptr noundef %0, ptr noundef %1, i32 noundef %2) #4 {
  %4 = alloca ptr, align 8
  %5 = alloca ptr, align 8
  %6 = alloca i32, align 4
  %7 = alloca i32, align 4
  store ptr %0, ptr %4, align 8, !tbaa !4
  store ptr %1, ptr %5, align 8, !tbaa !106
  store i32 %2, ptr %6, align 4, !tbaa !11
  call void @llvm.lifetime.start.p0(i64 4, ptr %7) #11
  %8 = load ptr, ptr @stderr, align 8, !tbaa !9
  %9 = load ptr, ptr %4, align 8, !tbaa !4
  %10 = call i32 (ptr, ptr, ...) @fprintf(ptr noundef %8, ptr noundef @.str.89, ptr noundef %9) #11
  store i32 0, ptr %7, align 4, !tbaa !11
  br label %11

11:                                               ; preds = %28, %3
  %12 = load i32, ptr %7, align 4, !tbaa !11
  %13 = load i32, ptr %6, align 4, !tbaa !11
  %14 = icmp slt i32 %12, %13
  br i1 %14, label %15, label %31

15:                                               ; preds = %11
  %16 = load ptr, ptr @stderr, align 8, !tbaa !9
  %17 = call i32 (ptr, ptr, ...) @fprintf(ptr noundef %16, ptr noundef @.str.90) #11
  %18 = load ptr, ptr @stderr, align 8, !tbaa !9
  %19 = load ptr, ptr %5, align 8, !tbaa !106
  %20 = load i32, ptr %7, align 4, !tbaa !11
  %21 = sext i32 %20 to i64
  %22 = getelementptr inbounds %struct.hwloc_utils_parsing_flag, ptr %19, i64 %21
  %23 = getelementptr inbounds nuw %struct.hwloc_utils_parsing_flag, ptr %22, i32 0, i32 1
  %24 = load ptr, ptr %23, align 8, !tbaa !109
  %25 = call i32 (ptr, ptr, ...) @fprintf(ptr noundef %18, ptr noundef @.str.91, ptr noundef %24) #11
  %26 = load ptr, ptr @stderr, align 8, !tbaa !9
  %27 = call i32 (ptr, ptr, ...) @fprintf(ptr noundef %26, ptr noundef @.str.92) #11
  br label %28

28:                                               ; preds = %15
  %29 = load i32, ptr %7, align 4, !tbaa !11
  %30 = add nsw i32 %29, 1
  store i32 %30, ptr %7, align 4, !tbaa !11
  br label %11, !llvm.loop !114

31:                                               ; preds = %11
  call void @llvm.lifetime.end.p0(i64 4, ptr %7) #11
  ret void
}