; Function Attrs: cold inlinehint nofree nounwind uwtable
define internal fastcc void @hwloc_utils_parsing_flag_error(ptr noundef %0, ptr noundef nonnull readonly captures(none) %1, i32 noundef range(i32 2, 4) %2) unnamed_addr #18 {
  %4 = load ptr, ptr @stderr, align 8, !tbaa !9
  %5 = tail call i32 (ptr, ptr, ...) @fprintf(ptr noundef %4, ptr noundef nonnull @.str.89, ptr noundef %0) #29
  %wide.trip.count = zext nneg i32 %2 to i64
  br label %6

6:                                                ; preds = %3, %6
  %indvars.iv = phi i64 [ 0, %3 ], [ %indvars.iv.next, %6 ]
  %7 = load ptr, ptr @stderr, align 8, !tbaa !9
  %8 = tail call i64 @fwrite(ptr nonnull @.str.90, i64 2, i64 1, ptr %7) #32
  %9 = load ptr, ptr @stderr, align 8, !tbaa !9
  %10 = getelementptr inbounds nuw %struct.hwloc_utils_parsing_flag, ptr %1, i64 %indvars.iv, i32 1
  %11 = load ptr, ptr %10, align 8, !tbaa !99
  %fputs = tail call i32 @fputs(ptr %11, ptr %9) #32
  %12 = load ptr, ptr @stderr, align 8, !tbaa !9
  %fputc = tail call i32 @fputc(i32 10, ptr %12)
  %indvars.iv.next = add nuw nsw i64 %indvars.iv, 1
  %exitcond.not = icmp eq i64 %indvars.iv.next, %wide.trip.count
  br i1 %exitcond.not, label %13, label %6, !llvm.loop !103

13:                                               ; preds = %6
  ret void
}